; ModuleID = '56/2808.c'
source_filename = "56/2808.c"
target datalayout = "e-m:e-p270:32:32-p271:32:32-p272:64:64-i64:64-f80:128-n8:16:32:64-S128"
target triple = "x86_64-pc-linux-gnu"

@.str = private unnamed_addr constant [3 x i8] c"%d\00", align 1

; Function Attrs: noinline nounwind uwtable
define dso_local void @main() #0 {
  %1 = alloca i8, align 1
  %2 = alloca i32, align 4
  %3 = alloca i32, align 4
  store i32 0, i32* %2, align 4
  store i32 1, i32* %3, align 4
  %4 = call i32 @getchar()
  %5 = trunc i32 %4 to i8
  store i8 %5, i8* %1, align 1
  br label %6

6:                                                ; preds = %10, %0
  %7 = load i8, i8* %1, align 1
  %8 = sext i8 %7 to i32
  %9 = icmp ne i32 %8, 10
  br i1 %9, label %10, label %22

10:                                               ; preds = %6
  %11 = load i32, i32* %2, align 4
  %12 = load i8, i8* %1, align 1
  %13 = sext i8 %12 to i32
  %14 = sub nsw i32 %13, 48
  %15 = load i32, i32* %3, align 4
  %16 = mul nsw i32 %14, %15
  %17 = add nsw i32 %11, %16
  store i32 %17, i32* %2, align 4
  %18 = load i32, i32* %3, align 4
  %19 = mul nsw i32 %18, 10
  store i32 %19, i32* %3, align 4
  %20 = call i32 @getchar()
  %21 = trunc i32 %20 to i8
  store i8 %21, i8* %1, align 1
  br label %6

22:                                               ; preds = %6
  %23 = load i32, i32* %2, align 4
  %24 = call i32 (i8*, ...) @printf(i8* getelementptr inbounds ([3 x i8], [3 x i8]* @.str, i64 0, i64 0), i32 %23)
  ret void
}

declare dso_local i32 @getchar() #1

declare dso_local i32 @printf(i8*, ...) #1


!llvm.module.flags = !{!0}
!llvm.ident = !{!1}

!0 = !{i32 1, !"wchar_size", i32 4}
!1 = !{!"clang version 10.0.0-4ubuntu1 "}
